; Function Attrs: nounwind uwtable
define hidden void @je_psset_update_begin(ptr noundef %0, ptr noundef initializes((35, 36)) %1) local_unnamed_addr #0 {
  %3 = getelementptr inbounds nuw i8, ptr %1, i64 35
  store i8 1, ptr %3, align 1, !tbaa !15
  tail call fastcc void @psset_stats_remove(ptr noundef %0, ptr noundef %1)
  %4 = getelementptr i8, ptr %1, i64 18
  %.val = load i8, ptr %4, align 2, !tbaa !22, !range !23, !noundef !24
  %5 = trunc nuw i8 %.val to i1
  br i1 %5, label %6, label %7

6:                                                ; preds = %2
  tail call fastcc void @psset_alloc_container_remove(ptr noundef %0, ptr noundef nonnull %1)
  br label %7

7:                                                ; preds = %6, %2
  tail call fastcc void @psset_maybe_remove_purge_list(ptr noundef %0, ptr noundef nonnull %1)
  ret void
}